target datalayout = "e-m:e-p270:32:32-p271:32:32-p272:64:64-i64:64-i128:128-f80:128-n8:16:32:64-S128"
target triple = "x86_64-pc-linux-gnu"

%"class.icu_77::number::IncrementPrecision" = type { %"class.icu_77::number::Precision.base", [4 x i8] }
%"class.icu_77::number::Precision.base" = type <{ i32, [4 x i8], %"union.icu_77::number::Precision::PrecisionUnion", i32 }>
%"union.icu_77::number::Precision::PrecisionUnion" = type { %"struct.icu_77::number::Precision::PrecisionUnion::IncrementSettings" }
%"struct.icu_77::number::Precision::PrecisionUnion::IncrementSettings" = type { i64, i16, i16 }
%"class.icu_77::number::Precision" = type <{ i32, [4 x i8], %"union.icu_77::number::Precision::PrecisionUnion", i32, [4 x i8] }>

; Function Attrs: mustprogress nounwind uwtable
define linkonce_odr void @_ZN6icu_776number9PrecisionC2ERKNS1_13PrecisionTypeERKNS1_14PrecisionUnionE(ptr noundef nonnull align 8 dereferenceable(28) %0, ptr noundef nonnull align 4 dereferenceable(4) %1, ptr noundef nonnull align 8 dereferenceable(16) %2) unnamed_addr #0 comdat align 2 {
  %4 = alloca ptr, align 8
  %5 = alloca ptr, align 8
  %6 = alloca ptr, align 8
  store ptr %0, ptr %4, align 8, !tbaa !25
  store ptr %1, ptr %5, align 8, !tbaa !22
  store ptr %2, ptr %6, align 8, !tbaa !63
  %7 = load ptr, ptr %4, align 8
  %8 = getelementptr inbounds nuw %"class.icu_77::number::Precision", ptr %7, i32 0, i32 0
  %9 = load ptr, ptr %5, align 8, !tbaa !22
  %10 = load i32, ptr %9, align 4, !tbaa !52
  store i32 %10, ptr %8, align 8, !tbaa !65
  %11 = getelementptr inbounds nuw %"class.icu_77::number::Precision", ptr %7, i32 0, i32 2
  %12 = load ptr, ptr %6, align 8, !tbaa !63
  call void @llvm.memcpy.p0.p0.i64(ptr align 8 %11, ptr align 8 %12, i64 16, i1 false), !tbaa.struct !68
  %13 = getelementptr inbounds nuw %"class.icu_77::number::Precision", ptr %7, i32 0, i32 3
  store i32 0, ptr %13, align 8, !tbaa !69
  ret void
}

; Function Attrs: inlinehint mustprogress nounwind uwtable
define linkonce_odr void @_ZN6icu_776number18IncrementPrecisionCI2NS0_9PrecisionEERKNS0_9Precision13PrecisionTypeERKNS2_14PrecisionUnionE(ptr noundef nonnull align 8 dereferenceable(28) %0, ptr noundef nonnull align 4 dereferenceable(4) %1, ptr noundef nonnull align 8 dereferenceable(16) %2) unnamed_addr #2 comdat align 2 {
  %4 = alloca ptr, align 8
  %5 = alloca ptr, align 8
  %6 = alloca ptr, align 8
  store ptr %0, ptr %4, align 8, !tbaa !83
  store ptr %1, ptr %5, align 8, !tbaa !22
  store ptr %2, ptr %6, align 8, !tbaa !63
  %7 = load ptr, ptr %4, align 8
  %8 = load ptr, ptr %5, align 8
  %9 = load ptr, ptr %6, align 8
  call void @_ZN6icu_776number9PrecisionC2ERKNS1_13PrecisionTypeERKNS1_14PrecisionUnionE(ptr noundef nonnull align 8 dereferenceable(28) %7, ptr noundef nonnull align 4 dereferenceable(4) %8, ptr noundef nonnull align 8 dereferenceable(16) %9)
  ret void
}

; Function Attrs: mustprogress uwtable
define void @_ZN6icu_776number9Precision18constructIncrementEms(ptr dead_on_unwind noalias writable sret(%"class.icu_77::number::IncrementPrecision") align 8 %0, i64 noundef %1, i16 noundef signext %2) #1 align 2 {
  %4 = alloca i64, align 8
  %5 = alloca i16, align 2
  %6 = alloca %"struct.icu_77::number::Precision::PrecisionUnion::IncrementSettings", align 8
  %7 = alloca %"union.icu_77::number::Precision::PrecisionUnion", align 8
  %8 = alloca i32, align 4
  %9 = alloca i32, align 4
  %10 = alloca i32, align 4
  %11 = alloca i32, align 4
  store i64 %1, ptr %4, align 8, !tbaa !18
  store i16 %2, ptr %5, align 2, !tbaa !48
  call void @llvm.lifetime.start.p0(i64 16, ptr %6) #13
  call void @llvm.memset.p0.i64(ptr align 8 %6, i8 0, i64 16, i1 false)
  %12 = load i64, ptr %4, align 8, !tbaa !18
  %13 = getelementptr inbounds nuw %"struct.icu_77::number::Precision::PrecisionUnion::IncrementSettings", ptr %6, i32 0, i32 0
  store i64 %12, ptr %13, align 8, !tbaa !78
  %14 = load i16, ptr %5, align 2, !tbaa !48
  %15 = getelementptr inbounds nuw %"struct.icu_77::number::Precision::PrecisionUnion::IncrementSettings", ptr %6, i32 0, i32 1
  store i16 %14, ptr %15, align 8, !tbaa !80
  %16 = load i16, ptr %5, align 2, !tbaa !48
  %17 = sext i16 %16 to i32
  %18 = icmp sgt i32 %17, 0
  br i1 %18, label %19, label %20

19:                                               ; preds = %3
  br label %24

20:                                               ; preds = %3
  %21 = load i16, ptr %5, align 2, !tbaa !48
  %22 = sext i16 %21 to i32
  %23 = sub nsw i32 0, %22
  br label %24

24:                                               ; preds = %20, %19
  %25 = phi i32 [ 0, %19 ], [ %23, %20 ]
  %26 = trunc i32 %25 to i16
  %27 = getelementptr inbounds nuw %"struct.icu_77::number::Precision::PrecisionUnion::IncrementSettings", ptr %6, i32 0, i32 2
  store i16 %26, ptr %27, align 2, !tbaa !81
  call void @llvm.lifetime.start.p0(i64 16, ptr %7) #13
  call void @llvm.memset.p0.i64(ptr align 8 %7, i8 0, i64 16, i1 false)
  call void @llvm.memcpy.p0.p0.i64(ptr align 8 %7, ptr align 8 %6, i64 16, i1 false), !tbaa.struct !82
  %28 = load i64, ptr %4, align 8, !tbaa !18
  %29 = icmp eq i64 %28, 1
  br i1 %29, label %30, label %31

30:                                               ; preds = %24
  call void @llvm.lifetime.start.p0(i64 4, ptr %8) #13
  store i32 6, ptr %8, align 4, !tbaa !52
  call void @_ZN6icu_776number18IncrementPrecisionCI2NS0_9PrecisionEERKNS0_9Precision13PrecisionTypeERKNS2_14PrecisionUnionE(ptr noundef nonnull align 8 dereferenceable(28) %0, ptr noundef nonnull align 4 dereferenceable(4) %8, ptr noundef nonnull align 8 dereferenceable(16) %7)
  call void @llvm.lifetime.end.p0(i64 4, ptr %8) #13
  store i32 1, ptr %9, align 4
  br label %36

31:                                               ; preds = %24
  %32 = load i64, ptr %4, align 8, !tbaa !18
  %33 = icmp eq i64 %32, 5
  br i1 %33, label %34, label %35

34:                                               ; preds = %31
  call void @llvm.lifetime.start.p0(i64 4, ptr %10) #13
  store i32 7, ptr %10, align 4, !tbaa !52
  call void @_ZN6icu_776number18IncrementPrecisionCI2NS0_9PrecisionEERKNS0_9Precision13PrecisionTypeERKNS2_14PrecisionUnionE(ptr noundef nonnull align 8 dereferenceable(28) %0, ptr noundef nonnull align 4 dereferenceable(4) %10, ptr noundef nonnull align 8 dereferenceable(16) %7)
  call void @llvm.lifetime.end.p0(i64 4, ptr %10) #13
  store i32 1, ptr %9, align 4
  br label %36

35:                                               ; preds = %31
  call void @llvm.lifetime.start.p0(i64 4, ptr %11) #13
  store i32 5, ptr %11, align 4, !tbaa !52
  call void @_ZN6icu_776number18IncrementPrecisionCI2NS0_9PrecisionEERKNS0_9Precision13PrecisionTypeERKNS2_14PrecisionUnionE(ptr noundef nonnull align 8 dereferenceable(28) %0, ptr noundef nonnull align 4 dereferenceable(4) %11, ptr noundef nonnull align 8 dereferenceable(16) %7)
  call void @llvm.lifetime.end.p0(i64 4, ptr %11) #13
  store i32 1, ptr %9, align 4
  br label %36

36:                                               ; preds = %35, %34, %30
  call void @llvm.lifetime.end.p0(i64 16, ptr %7) #13
  call void @llvm.lifetime.end.p0(i64 16, ptr %6) #13
  ret void
}