; Function Attrs: mustprogress nofree norecurse nosync nounwind willreturn memory(argmem: write) uwtable
define void @_ZN6icu_776number9Precision18constructIncrementEms(ptr dead_on_unwind noalias writable writeonly sret(%"class.icu_77::number::IncrementPrecision") align 8 captures(none) initializes((0, 4), (8, 28)) %0, i64 noundef %1, i16 noundef signext %2) local_unnamed_addr #11 align 2 {
  %switch.selectcmp = icmp eq i64 %1, 5
  %switch.select = select i1 %switch.selectcmp, i32 7, i32 5
  %switch.selectcmp30 = icmp eq i64 %1, 1
  %switch.select31 = select i1 %switch.selectcmp30, i32 6, i32 %switch.select
  %4 = getelementptr inbounds nuw i8, ptr %0, i64 24
  %.sroa.9.0..sroa_idx21 = getelementptr inbounds nuw i8, ptr %0, i64 20
  %.sroa.8.0..sroa_idx17 = getelementptr inbounds nuw i8, ptr %0, i64 18
  %.sroa.7.0..sroa_idx13 = getelementptr inbounds nuw i8, ptr %0, i64 16
  %5 = getelementptr inbounds nuw i8, ptr %0, i64 8
  %6 = icmp sgt i16 %2, 0
  %7 = sub i16 0, %2
  %8 = select i1 %6, i16 0, i16 %7
  store i32 %switch.select31, ptr %0, align 8, !tbaa !27
  store i64 %1, ptr %5, align 8
  store i16 %2, ptr %.sroa.7.0..sroa_idx13, align 8
  store i16 %8, ptr %.sroa.8.0..sroa_idx17, align 2
  store i32 0, ptr %.sroa.9.0..sroa_idx21, align 4, !tbaa !17
  store i32 0, ptr %4, align 8, !tbaa !31
  ret void
}